; Function Attrs: nounwind uwtable
define hidden void @zim_ReflectionMethod_isConstructor(ptr noundef readonly captures(none) %0, ptr noundef writeonly captures(none) %1) #0 {
  %3 = getelementptr inbounds nuw i8, ptr %0, i64 44
  %4 = load i32, ptr %3, align 4, !tbaa !26
  %.not = icmp eq i32 %4, 0
  br i1 %.not, label %6, label %5, !prof !70

5:                                                ; preds = %2
  tail call void @zend_wrong_parameters_none_error() #13
  br label %41

6:                                                ; preds = %2
  %7 = getelementptr inbounds nuw i8, ptr %0, i64 32
  %8 = load ptr, ptr %7, align 8, !tbaa !26
  %9 = getelementptr inbounds i8, ptr %8, i64 -24
  %10 = load ptr, ptr %9, align 8, !tbaa !27
  %11 = icmp eq ptr %10, null
  br i1 %11, label %12, label %22

12:                                               ; preds = %6
  %13 = load ptr, ptr getelementptr inbounds nuw (i8, ptr @executor_globals, i64 960), align 8, !tbaa !39
  %.not13 = icmp eq ptr %13, null
  br i1 %.not13, label %19, label %14

14:                                               ; preds = %12
  %15 = getelementptr inbounds nuw i8, ptr %13, i64 16
  %16 = load ptr, ptr %15, align 8, !tbaa !34
  %17 = load ptr, ptr @reflection_exception_ptr, align 8, !tbaa !38
  %18 = icmp eq ptr %16, %17
  br i1 %18, label %41, label %19

19:                                               ; preds = %14, %12
  tail call void (ptr, ptr, ...) @zend_throw_error(ptr noundef null, ptr noundef nonnull @.str.10) #13
  %20 = load ptr, ptr getelementptr inbounds nuw (i8, ptr @executor_globals, i64 960), align 8, !tbaa !39
  %21 = icmp ne ptr %20, null
  tail call void @llvm.assume(i1 %21)
  br label %41

22:                                               ; preds = %6
  %23 = getelementptr inbounds nuw i8, ptr %10, i64 4
  %24 = load i32, ptr %23, align 4, !tbaa !26
  %25 = and i32 %24, 2097152
  %.not11 = icmp eq i32 %25, 0
  br i1 %.not11, label %38, label %26

26:                                               ; preds = %22
  %27 = getelementptr inbounds i8, ptr %8, i64 -16
  %28 = load ptr, ptr %27, align 8, !tbaa !33
  %29 = getelementptr inbounds nuw i8, ptr %28, i64 256
  %30 = load ptr, ptr %29, align 8, !tbaa !190
  %.not12 = icmp eq ptr %30, null
  br i1 %.not12, label %38, label %31

31:                                               ; preds = %26
  %32 = getelementptr inbounds nuw i8, ptr %30, i64 16
  %33 = load ptr, ptr %32, align 8, !tbaa !26
  %34 = getelementptr inbounds nuw i8, ptr %10, i64 16
  %35 = load ptr, ptr %34, align 8, !tbaa !26
  %36 = icmp eq ptr %33, %35
  %37 = select i1 %36, i32 3, i32 2
  br label %38

38:                                               ; preds = %31, %26, %22
  %39 = phi i32 [ 2, %26 ], [ 2, %22 ], [ %37, %31 ]
  %40 = getelementptr inbounds nuw i8, ptr %1, i64 8
  store i32 %39, ptr %40, align 8, !tbaa !26
  br label %41

41:                                               ; preds = %14, %38, %19, %5
  ret void
}